; Function Attrs: mustprogress nounwind uwtable
define hidden void @_ZN15G1ServiceThread8scheduleEP13G1ServiceTasklb(ptr noundef nonnull align 8 dereferenceable(1064) %0, ptr noundef %1, i64 noundef %2, i1 noundef zeroext %3) local_unnamed_addr #3 align 2 {
  %5 = getelementptr inbounds i8, ptr %1, i64 32
  %6 = load ptr, ptr %5, align 8
  %.not = icmp eq ptr %6, null
  br i1 %.not, label %7, label %9

7:                                                ; preds = %4
  %8 = load ptr, ptr @g_assert_poison, align 8
  store i8 88, ptr %8, align 1
  tail call void (ptr, i32, ptr, ptr, ...) @_Z15report_vm_errorPKciS0_S0_z(ptr noundef nonnull @.str.4, i32 noundef 73, ptr noundef nonnull @.str.15, ptr noundef nonnull @.str.16) #14
  unreachable

9:                                                ; preds = %4
  %10 = getelementptr inbounds i8, ptr %1, i64 24
  %11 = load ptr, ptr %10, align 8
  %12 = icmp eq ptr %11, null
  br i1 %12, label %15, label %13

13:                                               ; preds = %9
  %14 = load ptr, ptr @g_assert_poison, align 8
  store i8 88, ptr %14, align 1
  tail call void (ptr, i32, ptr, ptr, ...) @_Z15report_vm_errorPKciS0_S0_z(ptr noundef nonnull @.str.4, i32 noundef 74, ptr noundef nonnull @.str.11, ptr noundef nonnull @.str.12) #14
  unreachable

15:                                               ; preds = %9
  %16 = tail call noundef i64 @_ZN10TimeHelper17millis_to_counterEl(i64 noundef %2) #15
  %17 = tail call noundef i64 @_ZN2os15elapsed_counterEv() #15
  %18 = add nsw i64 %17, %16
  %19 = getelementptr inbounds i8, ptr %1, i64 8
  store i64 %18, ptr %19, align 8
  %20 = getelementptr inbounds i8, ptr %0, i64 920
  tail call void @_ZN5Mutex28lock_without_safepoint_checkEv(ptr noundef nonnull align 8 dereferenceable(104) %20) #15
  %21 = getelementptr inbounds i8, ptr %0, i64 1024
  %22 = load i64, ptr %19, align 8
  br label %23

23:                                               ; preds = %23, %15
  %.0.i = phi ptr [ %21, %15 ], [ %25, %23 ]
  %24 = getelementptr inbounds i8, ptr %.0.i, i64 24
  %25 = load ptr, ptr %24, align 8
  %26 = getelementptr inbounds i8, ptr %25, i64 8
  %27 = load i64, ptr %26, align 8
  %.not.i = icmp slt i64 %22, %27
  br i1 %.not.i, label %_ZN18G1ServiceTaskQueue11add_orderedEP13G1ServiceTask.exit, label %23, !llvm.loop !6

_ZN18G1ServiceTaskQueue11add_orderedEP13G1ServiceTask.exit: ; preds = %23
  %28 = getelementptr inbounds i8, ptr %.0.i, i64 24
  store ptr %25, ptr %10, align 8
  store ptr %1, ptr %28, align 8
  br i1 %3, label %29, label %30

29:                                               ; preds = %_ZN18G1ServiceTaskQueue11add_orderedEP13G1ServiceTask.exit
  tail call void @_ZN7Monitor6notifyEv(ptr noundef nonnull align 8 dereferenceable(104) %20) #15
  br label %30

30:                                               ; preds = %29, %_ZN18G1ServiceTaskQueue11add_orderedEP13G1ServiceTask.exit
  %31 = load volatile ptr, ptr getelementptr inbounds (i8, ptr @_ZN16LogTagSetMappingILN6LogTag4typeE49ELS1_158ELS1_0ELS1_0ELS1_0ELS1_0EE7_tagsetE, i64 48), align 8
  %.not10 = icmp eq ptr %31, null
  br i1 %.not10, label %_ZN13MonitorLockerD2Ev.exit, label %32

32:                                               ; preds = %30
  %33 = getelementptr inbounds i8, ptr %1, i64 16
  %34 = load ptr, ptr %33, align 8
  %35 = load i64, ptr %19, align 8
  %36 = tail call noundef double @_ZN10TimeHelper18counter_to_secondsEl(i64 noundef %35) #15
  tail call void (ptr, ...) @_ZN7LogImplILN6LogTag4typeE49ELS1_158ELS1_0ELS1_0ELS1_0ELS1_0EE5writeILN8LogLevel4typeE1EEEvPKcz(ptr noundef nonnull @.str.17, ptr noundef %34, double noundef %36)
  br label %_ZN13MonitorLockerD2Ev.exit

_ZN13MonitorLockerD2Ev.exit:                      ; preds = %30, %32
  tail call void @_ZN5Mutex6unlockEv(ptr noundef nonnull align 8 dereferenceable(104) %20) #15
  ret void
}